target datalayout = "e-m:e-p270:32:32-p271:32:32-p272:64:64-i64:64-i128:128-f80:128-n8:16:32:64-S128"
target triple = "x86_64-pc-linux-gnu"

%struct._fvalue_t = type { ptr, %union.anon.1 }
%union.anon.1 = type { %struct._protocol_value_t }
%struct._protocol_value_t = type { ptr, i32, ptr, i8 }

@.str.4 = private unnamed_addr constant [10 x i8] c"-INFINITY\00", align 1
@.str.5 = private unnamed_addr constant [4 x i8] c"RFU\00", align 1
@.str.6 = private unnamed_addr constant [5 x i8] c"NRes\00", align 1
@.str.7 = private unnamed_addr constant [4 x i8] c"NaN\00", align 1
@.str.8 = private unnamed_addr constant [10 x i8] c"+INFINITY\00", align 1
@.str.9 = private unnamed_addr constant [2 x i8] c"0\00", align 1
@.str.10 = private unnamed_addr constant [3 x i8] c"%u\00", align 1

; Function Attrs: alwaysinline nounwind
define internal ptr @memset.inline(ptr %0, i32 %1, i64 %2) #4 {
  %4 = alloca ptr, align 8
  %5 = alloca i32, align 4
  %6 = alloca i64, align 8
  store ptr %0, ptr %4, align 8
  store i32 %1, ptr %5, align 4
  store i64 %2, ptr %6, align 8
  %7 = load ptr, ptr %4, align 8
  %8 = load i32, ptr %5, align 4
  %9 = load i64, ptr %6, align 8
  %10 = load ptr, ptr %4, align 8
  %11 = call i64 @llvm.objectsize.i64.p0(ptr %10, i1 false, i1 true, i1 true)
  %12 = call ptr @__memset_chk(ptr noundef %7, i32 noundef %8, i64 noundef %9, i64 noundef %11) #7
  ret ptr %12
}

; Function Attrs: alwaysinline nounwind
define internal ptr @memcpy.inline(ptr noalias %0, ptr noalias %1, i64 %2) #4 {
  %4 = alloca ptr, align 8
  %5 = alloca ptr, align 8
  %6 = alloca i64, align 8
  store ptr %0, ptr %4, align 8
  store ptr %1, ptr %5, align 8
  store i64 %2, ptr %6, align 8
  %7 = load ptr, ptr %4, align 8
  %8 = load ptr, ptr %5, align 8
  %9 = load i64, ptr %6, align 8
  %10 = load ptr, ptr %4, align 8
  %11 = call i64 @llvm.objectsize.i64.p0(ptr %10, i1 false, i1 true, i1 true)
  %12 = call ptr @__memcpy_chk(ptr noundef %7, ptr noundef %8, i64 noundef %9, i64 noundef %11) #7
  ret ptr %12
}

; Function Attrs: null_pointer_is_valid sspstrong uwtable
define internal ptr @sfloat_ieee_11073_val_to_repr(ptr noundef %0, ptr noundef %1, i32 noundef %2, i32 noundef %3) #0 {
  %5 = alloca ptr, align 8
  %6 = alloca ptr, align 8
  %7 = alloca ptr, align 8
  %8 = alloca i32, align 4
  %9 = alloca i32, align 4
  %10 = alloca i8, align 1
  %11 = alloca i16, align 2
  %12 = alloca i16, align 2
  %13 = alloca i32, align 4
  %14 = alloca [5 x i8], align 1
  %15 = alloca ptr, align 8
  %16 = alloca i8, align 1
  %17 = alloca ptr, align 8
  %18 = alloca i32, align 4
  %19 = alloca [13 x i8], align 1
  store ptr %0, ptr %6, align 8
  store ptr %1, ptr %7, align 8
  store i32 %2, ptr %8, align 4
  store i32 %3, ptr %9, align 4
  call void @llvm.lifetime.start.p0(i64 1, ptr %10) #7
  call void @llvm.lifetime.start.p0(i64 2, ptr %11) #7
  call void @llvm.lifetime.start.p0(i64 2, ptr %12) #7
  call void @llvm.lifetime.start.p0(i64 4, ptr %13) #7
  store i32 0, ptr %13, align 4
  call void @llvm.lifetime.start.p0(i64 5, ptr %14) #7
  call void @llvm.lifetime.start.p0(i64 8, ptr %15) #7
  call void @llvm.lifetime.start.p0(i64 1, ptr %16) #7
  %20 = load ptr, ptr %7, align 8
  %21 = getelementptr inbounds nuw %struct._fvalue_t, ptr %20, i32 0, i32 1
  %22 = load i16, ptr %21, align 8
  %23 = zext i16 %22 to i32
  %24 = icmp sge i32 %23, 2046
  br i1 %24, label %25, label %45

25:                                               ; preds = %4
  %26 = load ptr, ptr %7, align 8
  %27 = getelementptr inbounds nuw %struct._fvalue_t, ptr %26, i32 0, i32 1
  %28 = load i16, ptr %27, align 8
  %29 = zext i16 %28 to i32
  %30 = icmp sle i32 %29, 2050
  br i1 %30, label %31, label %45

31:                                               ; preds = %25
  call void @llvm.lifetime.start.p0(i64 8, ptr %17) #7
  store ptr null, ptr %17, align 8
  %32 = load ptr, ptr %7, align 8
  %33 = getelementptr inbounds nuw %struct._fvalue_t, ptr %32, i32 0, i32 1
  %34 = load i16, ptr %33, align 8
  %35 = zext i16 %34 to i32
  switch i32 %35, label %41 [
    i32 2046, label %36
    i32 2047, label %37
    i32 2048, label %38
    i32 2049, label %39
    i32 2050, label %40
  ]

36:                                               ; preds = %31
  store ptr @.str.8, ptr %17, align 8
  br label %41

37:                                               ; preds = %31
  store ptr @.str.7, ptr %17, align 8
  br label %41

38:                                               ; preds = %31
  store ptr @.str.6, ptr %17, align 8
  br label %41

39:                                               ; preds = %31
  store ptr @.str.5, ptr %17, align 8
  br label %41

40:                                               ; preds = %31
  store ptr @.str.4, ptr %17, align 8
  br label %41

41:                                               ; preds = %31, %40, %39, %38, %37, %36
  %42 = load ptr, ptr %6, align 8
  %43 = load ptr, ptr %17, align 8
  %44 = call noalias ptr @wmem_strdup(ptr noundef %42, ptr noundef %43)
  store ptr %44, ptr %5, align 8
  store i32 1, ptr %18, align 4
  call void @llvm.lifetime.end.p0(i64 8, ptr %17) #7
  br label %264

45:                                               ; preds = %25, %4
  call void @llvm.lifetime.start.p0(i64 13, ptr %19) #7
  %46 = load ptr, ptr %7, align 8
  %47 = getelementptr inbounds nuw %struct._fvalue_t, ptr %46, i32 0, i32 1
  %48 = load i16, ptr %47, align 8
  %49 = zext i16 %48 to i32
  %50 = ashr i32 %49, 12
  %51 = trunc i32 %50 to i8
  store i8 %51, ptr %10, align 1
  %52 = load i8, ptr %10, align 1
  %53 = sext i8 %52 to i32
  %54 = and i32 %53, 8
  %55 = icmp ne i32 %54, 0
  br i1 %55, label %56, label %61

56:                                               ; preds = %45
  %57 = load i8, ptr %10, align 1
  %58 = sext i8 %57 to i32
  %59 = or i32 %58, 240
  %60 = trunc i32 %59 to i8
  store i8 %60, ptr %10, align 1
  br label %61

61:                                               ; preds = %56, %45
  %62 = load ptr, ptr %7, align 8
  %63 = getelementptr inbounds nuw %struct._fvalue_t, ptr %62, i32 0, i32 1
  %64 = load i16, ptr %63, align 8
  %65 = zext i16 %64 to i32
  %66 = and i32 %65, 2047
  %67 = trunc i32 %66 to i16
  store i16 %67, ptr %11, align 2
  %68 = load ptr, ptr %7, align 8
  %69 = getelementptr inbounds nuw %struct._fvalue_t, ptr %68, i32 0, i32 1
  %70 = load i16, ptr %69, align 8
  %71 = zext i16 %70 to i32
  %72 = and i32 %71, 2048
  %73 = trunc i32 %72 to i16
  store i16 %73, ptr %12, align 2
  %74 = load i16, ptr %12, align 2
  %75 = icmp ne i16 %74, 0
  br i1 %75, label %76, label %82

76:                                               ; preds = %61
  %77 = load i16, ptr %11, align 2
  %78 = sext i16 %77 to i32
  %79 = or i32 %78, 63488
  %80 = sub i32 0, %79
  %81 = trunc i32 %80 to i16
  store i16 %81, ptr %11, align 2
  br label %82

82:                                               ; preds = %76, %61
  %83 = load i16, ptr %11, align 2
  %84 = zext i16 %83 to i32
  %85 = icmp eq i32 %84, 0
  br i1 %85, label %86, label %89

86:                                               ; preds = %82
  %87 = load ptr, ptr %6, align 8
  %88 = call noalias ptr @wmem_strdup(ptr noundef %87, ptr noundef @.str.9)
  store ptr %88, ptr %5, align 8
  store i32 1, ptr %18, align 4
  br label %263

89:                                               ; preds = %82
  %90 = load i16, ptr %12, align 2
  %91 = icmp ne i16 %90, 0
  br i1 %91, label %92, label %96

92:                                               ; preds = %89
  %93 = getelementptr [13 x i8], ptr %19, i64 0, i64 0
  store i8 45, ptr %93, align 1
  %94 = load i32, ptr %13, align 4
  %95 = add i32 %94, 1
  store i32 %95, ptr %13, align 4
  br label %96

96:                                               ; preds = %92, %89
  %97 = getelementptr inbounds [5 x i8], ptr %14, i64 0, i64 0
  %98 = load i16, ptr %11, align 2
  %99 = zext i16 %98 to i32
  %100 = call i32 (ptr, i64, i32, i64, ptr, ...) @__snprintf_chk(ptr noundef %97, i64 noundef 5, i32 noundef 2, i64 noundef 5, ptr noundef @.str.10, i32 noundef %99)
  %101 = trunc i32 %100 to i8
  store i8 %101, ptr %16, align 1
  %102 = getelementptr inbounds [5 x i8], ptr %14, i64 0, i64 0
  store ptr %102, ptr %15, align 8
  %103 = load i8, ptr %10, align 1
  %104 = sext i8 %103 to i32
  %105 = icmp eq i32 %104, 0
  br i1 %105, label %106, label %119

106:                                              ; preds = %96
  %107 = getelementptr inbounds [13 x i8], ptr %19, i64 0, i64 0
  %108 = load i32, ptr %13, align 4
  %109 = zext i32 %108 to i64
  %110 = getelementptr i8, ptr %107, i64 %109
  %111 = load ptr, ptr %15, align 8
  %112 = load i8, ptr %16, align 1
  %113 = zext i8 %112 to i64
  %114 = call ptr @memcpy.inline(ptr noundef %110, ptr noundef %111, i64 noundef %113) #7
  %115 = load i8, ptr %16, align 1
  %116 = zext i8 %115 to i32
  %117 = load i32, ptr %13, align 4
  %118 = add i32 %117, %116
  store i32 %118, ptr %13, align 4
  br label %256

119:                                              ; preds = %96
  %120 = load i8, ptr %10, align 1
  %121 = sext i8 %120 to i32
  %122 = icmp sgt i32 %121, 0
  br i1 %122, label %123, label %147

123:                                              ; preds = %119
  %124 = getelementptr inbounds [13 x i8], ptr %19, i64 0, i64 0
  %125 = load i32, ptr %13, align 4
  %126 = zext i32 %125 to i64
  %127 = getelementptr i8, ptr %124, i64 %126
  %128 = load ptr, ptr %15, align 8
  %129 = load i8, ptr %16, align 1
  %130 = zext i8 %129 to i64
  %131 = call ptr @memcpy.inline(ptr noundef %127, ptr noundef %128, i64 noundef %130) #7
  %132 = load i8, ptr %16, align 1
  %133 = zext i8 %132 to i32
  %134 = load i32, ptr %13, align 4
  %135 = add i32 %134, %133
  store i32 %135, ptr %13, align 4
  %136 = getelementptr inbounds [13 x i8], ptr %19, i64 0, i64 0
  %137 = load i32, ptr %13, align 4
  %138 = zext i32 %137 to i64
  %139 = getelementptr i8, ptr %136, i64 %138
  %140 = load i8, ptr %10, align 1
  %141 = sext i8 %140 to i64
  %142 = call ptr @memset.inline(ptr noundef %139, i32 noundef 48, i64 noundef %141) #7
  %143 = load i8, ptr %10, align 1
  %144 = sext i8 %143 to i32
  %145 = load i32, ptr %13, align 4
  %146 = add i32 %145, %144
  store i32 %146, ptr %13, align 4
  br label %255

147:                                              ; preds = %119
  %148 = load i8, ptr %10, align 1
  %149 = sext i8 %148 to i32
  %150 = sub i32 0, %149
  %151 = load i8, ptr %16, align 1
  %152 = zext i8 %151 to i32
  %153 = icmp slt i32 %150, %152
  br i1 %153, label %154, label %202

154:                                              ; preds = %147
  %155 = getelementptr inbounds [13 x i8], ptr %19, i64 0, i64 0
  %156 = load i32, ptr %13, align 4
  %157 = zext i32 %156 to i64
  %158 = getelementptr i8, ptr %155, i64 %157
  %159 = load ptr, ptr %15, align 8
  %160 = load i8, ptr %16, align 1
  %161 = zext i8 %160 to i32
  %162 = load i8, ptr %10, align 1
  %163 = sext i8 %162 to i32
  %164 = add i32 %161, %163
  %165 = sext i32 %164 to i64
  %166 = call ptr @memcpy.inline(ptr noundef %158, ptr noundef %159, i64 noundef %165) #7
  %167 = load i8, ptr %16, align 1
  %168 = zext i8 %167 to i32
  %169 = load i8, ptr %10, align 1
  %170 = sext i8 %169 to i32
  %171 = add i32 %168, %170
  %172 = load i32, ptr %13, align 4
  %173 = add i32 %172, %171
  store i32 %173, ptr %13, align 4
  %174 = load i32, ptr %13, align 4
  %175 = zext i32 %174 to i64
  %176 = getelementptr [13 x i8], ptr %19, i64 0, i64 %175
  store i8 46, ptr %176, align 1
  %177 = load i32, ptr %13, align 4
  %178 = add i32 %177, 1
  store i32 %178, ptr %13, align 4
  %179 = getelementptr inbounds [13 x i8], ptr %19, i64 0, i64 0
  %180 = load i32, ptr %13, align 4
  %181 = zext i32 %180 to i64
  %182 = getelementptr i8, ptr %179, i64 %181
  %183 = load ptr, ptr %15, align 8
  %184 = load i8, ptr %16, align 1
  %185 = zext i8 %184 to i32
  %186 = sext i32 %185 to i64
  %187 = getelementptr i8, ptr %183, i64 %186
  %188 = load i8, ptr %10, align 1
  %189 = sext i8 %188 to i32
  %190 = sext i32 %189 to i64
  %191 = getelementptr i8, ptr %187, i64 %190
  %192 = load i8, ptr %10, align 1
  %193 = sext i8 %192 to i32
  %194 = sub i32 0, %193
  %195 = sext i32 %194 to i64
  %196 = call ptr @memcpy.inline(ptr noundef %182, ptr noundef %191, i64 noundef %195) #7
  %197 = load i8, ptr %10, align 1
  %198 = sext i8 %197 to i32
  %199 = sub i32 0, %198
  %200 = load i32, ptr %13, align 4
  %201 = add i32 %200, %199
  store i32 %201, ptr %13, align 4
  br label %254

202:                                              ; preds = %147
  %203 = load i32, ptr %13, align 4
  %204 = zext i32 %203 to i64
  %205 = getelementptr [13 x i8], ptr %19, i64 0, i64 %204
  store i8 48, ptr %205, align 1
  %206 = load i32, ptr %13, align 4
  %207 = add i32 %206, 1
  store i32 %207, ptr %13, align 4
  %208 = load i32, ptr %13, align 4
  %209 = zext i32 %208 to i64
  %210 = getelementptr [13 x i8], ptr %19, i64 0, i64 %209
  store i8 46, ptr %210, align 1
  %211 = load i32, ptr %13, align 4
  %212 = add i32 %211, 1
  store i32 %212, ptr %13, align 4
  %213 = load i8, ptr %10, align 1
  %214 = sext i8 %213 to i32
  %215 = sub i32 0, %214
  %216 = load i8, ptr %16, align 1
  %217 = zext i8 %216 to i32
  %218 = sub i32 %215, %217
  %219 = icmp sgt i32 %218, 0
  br i1 %219, label %220, label %241

220:                                              ; preds = %202
  %221 = getelementptr inbounds [13 x i8], ptr %19, i64 0, i64 0
  %222 = load i32, ptr %13, align 4
  %223 = zext i32 %222 to i64
  %224 = getelementptr i8, ptr %221, i64 %223
  %225 = load i8, ptr %10, align 1
  %226 = sext i8 %225 to i32
  %227 = sub i32 0, %226
  %228 = load i8, ptr %16, align 1
  %229 = zext i8 %228 to i32
  %230 = sub i32 %227, %229
  %231 = sext i32 %230 to i64
  %232 = call ptr @memset.inline(ptr noundef %224, i32 noundef 48, i64 noundef %231) #7
  %233 = load i8, ptr %10, align 1
  %234 = sext i8 %233 to i32
  %235 = sub i32 0, %234
  %236 = load i8, ptr %16, align 1
  %237 = zext i8 %236 to i32
  %238 = sub i32 %235, %237
  %239 = load i32, ptr %13, align 4
  %240 = add i32 %239, %238
  store i32 %240, ptr %13, align 4
  br label %241

241:                                              ; preds = %220, %202
  %242 = getelementptr inbounds [13 x i8], ptr %19, i64 0, i64 0
  %243 = load i32, ptr %13, align 4
  %244 = zext i32 %243 to i64
  %245 = getelementptr i8, ptr %242, i64 %244
  %246 = load ptr, ptr %15, align 8
  %247 = load i8, ptr %16, align 1
  %248 = zext i8 %247 to i64
  %249 = call ptr @memcpy.inline(ptr noundef %245, ptr noundef %246, i64 noundef %248) #7
  %250 = load i8, ptr %16, align 1
  %251 = zext i8 %250 to i32
  %252 = load i32, ptr %13, align 4
  %253 = add i32 %252, %251
  store i32 %253, ptr %13, align 4
  br label %254

254:                                              ; preds = %241, %154
  br label %255

255:                                              ; preds = %254, %123
  br label %256

256:                                              ; preds = %255, %106
  %257 = load i32, ptr %13, align 4
  %258 = zext i32 %257 to i64
  %259 = getelementptr [13 x i8], ptr %19, i64 0, i64 %258
  store i8 0, ptr %259, align 1
  %260 = load ptr, ptr %6, align 8
  %261 = getelementptr inbounds [13 x i8], ptr %19, i64 0, i64 0
  %262 = call noalias ptr @wmem_strdup(ptr noundef %260, ptr noundef %261)
  store ptr %262, ptr %5, align 8
  store i32 1, ptr %18, align 4
  br label %263

263:                                              ; preds = %256, %86
  call void @llvm.lifetime.end.p0(i64 13, ptr %19) #7
  br label %264

264:                                              ; preds = %263, %41
  call void @llvm.lifetime.end.p0(i64 1, ptr %16) #7
  call void @llvm.lifetime.end.p0(i64 8, ptr %15) #7
  call void @llvm.lifetime.end.p0(i64 5, ptr %14) #7
  call void @llvm.lifetime.end.p0(i64 4, ptr %13) #7
  call void @llvm.lifetime.end.p0(i64 2, ptr %12) #7
  call void @llvm.lifetime.end.p0(i64 2, ptr %11) #7
  call void @llvm.lifetime.end.p0(i64 1, ptr %10) #7
  %265 = load ptr, ptr %5, align 8
  ret ptr %265
}