; Function Attrs: null_pointer_is_valid sspstrong uwtable
define internal noalias ptr @sfloat_ieee_11073_val_to_repr(ptr noundef %0, ptr noundef readonly captures(none) %1, i32 %2, i32 %3) #0 {
  %5 = alloca [5 x i8], align 1
  %6 = alloca [13 x i8], align 1
  call void @llvm.lifetime.start.p0(i64 5, ptr nonnull %5) #11
  %7 = getelementptr inbounds nuw i8, ptr %1, i64 8
  %8 = load i16, ptr %7, align 8
  %9 = add i16 %8, -2046
  %or.cond = icmp ult i16 %9, 5
  br i1 %or.cond, label %switch.lookup, label %12

switch.lookup:                                    ; preds = %4
  %switch.tableidx = add nsw i16 %8, -2046
  %10 = sext i16 %switch.tableidx to i64
  %switch.gep = getelementptr inbounds [5 x ptr], ptr @switch.table.float_ieee_11073_val_to_repr, i64 0, i64 %10
  %switch.load = load ptr, ptr %switch.gep, align 8
  %11 = tail call noalias ptr @wmem_strdup(ptr noundef %0, ptr noundef nonnull %switch.load)
  br label %113

12:                                               ; preds = %4
  call void @llvm.lifetime.start.p0(i64 13, ptr nonnull %6) #11
  %13 = lshr i16 %8, 12
  %14 = trunc nuw nsw i16 %13 to i8
  %15 = or disjoint i8 %14, -16
  %.not86 = icmp slt i16 %8, 0
  %.071 = select i1 %.not86, i8 %15, i8 %14
  %16 = and i16 %8, 2047
  %17 = and i16 %8, 2048
  %.not83 = icmp eq i16 %17, 0
  %18 = or i16 %8, -2048
  %19 = sub nsw i16 0, %18
  %.074 = select i1 %.not83, i16 %16, i16 %19
  %20 = zext nneg i16 %.074 to i32
  %21 = icmp eq i16 %.074, 0
  br i1 %21, label %22, label %24

22:                                               ; preds = %12
  %23 = tail call noalias ptr @wmem_strdup(ptr noundef %0, ptr noundef nonnull @.str.9)
  br label %112

24:                                               ; preds = %12
  br i1 %.not83, label %26, label %25

25:                                               ; preds = %24
  store i8 45, ptr %6, align 1
  br label %26

26:                                               ; preds = %25, %24
  %.072 = phi i32 [ 1, %25 ], [ 0, %24 ]
  %27 = call i32 (ptr, i64, i32, i64, ptr, ...) @__snprintf_chk(ptr noundef nonnull %5, i64 noundef 5, i32 noundef 2, i64 noundef 5, ptr noundef nonnull @.str.10, i32 noundef %20)
  %28 = sext i8 %.071 to i32
  %29 = icmp eq i8 %.071, 0
  br i1 %29, label %30, label %37

30:                                               ; preds = %26
  %31 = zext nneg i32 %.072 to i64
  %32 = getelementptr i8, ptr %6, i64 %31
  %.mask85 = and i32 %27, 255
  %33 = zext nneg i32 %.mask85 to i64
  %34 = sub nuw nsw i64 13, %31
  %35 = call ptr @__memcpy_chk(ptr noundef %32, ptr noundef nonnull %5, i64 noundef range(i64 -127, 256) %33, i64 noundef %34) #11, !alias.scope !11
  %36 = add nuw nsw i32 %.mask85, %.072
  br label %108

37:                                               ; preds = %26
  %38 = icmp sgt i8 %.071, 0
  br i1 %38, label %39, label %55

39:                                               ; preds = %37
  %40 = zext nneg i32 %.072 to i64
  %41 = getelementptr i8, ptr %6, i64 %40
  %.mask84 = and i32 %27, 255
  %42 = zext nneg i32 %.mask84 to i64
  %43 = sub nuw nsw i64 13, %40
  %44 = call ptr @__memcpy_chk(ptr noundef %41, ptr noundef nonnull %5, i64 noundef range(i64 -127, 256) %42, i64 noundef %43) #11, !alias.scope !15
  %45 = add nuw nsw i32 %.mask84, %.072
  %46 = zext nneg i32 %45 to i64
  %47 = getelementptr i8, ptr %6, i64 %46
  %48 = zext nneg i8 %.071 to i64
  %49 = sub nsw i64 13, %46
  %50 = icmp samesign ugt i32 %45, 13
  %51 = select i1 %50, i64 0, i64 %49
  %52 = icmp ne i64 %51, -1
  call void @llvm.assume(i1 %52)
  %53 = call ptr @__memset_chk(ptr noundef %47, i32 noundef 48, i64 noundef range(i64 -128, 129) %48, i64 noundef %51) #11
  %54 = add nuw nsw i32 %45, %28
  br label %108

55:                                               ; preds = %37
  %56 = sub nsw i32 0, %28
  %57 = and i32 %27, 255
  %58 = icmp sgt i32 %57, %56
  %59 = zext nneg i32 %.072 to i64
  br i1 %58, label %60, label %83

60:                                               ; preds = %55
  %61 = getelementptr i8, ptr %6, i64 %59
  %62 = add nsw i32 %57, %28
  %63 = sext i32 %62 to i64
  %64 = sub nuw nsw i64 13, %59
  %65 = call ptr @__memcpy_chk(ptr noundef %61, ptr noundef nonnull %5, i64 noundef range(i64 -127, 256) %63, i64 noundef %64) #11, !alias.scope !19
  %66 = add nsw i32 %62, %.072
  %67 = zext i32 %66 to i64
  %68 = getelementptr [13 x i8], ptr %6, i64 0, i64 %67
  store i8 46, ptr %68, align 1
  %69 = add nsw i32 %66, 1
  %70 = zext i32 %69 to i64
  %71 = getelementptr i8, ptr %6, i64 %70
  %72 = zext nneg i32 %57 to i64
  %73 = getelementptr i8, ptr %5, i64 %72
  %74 = sext i8 %.071 to i64
  %75 = getelementptr i8, ptr %73, i64 %74
  %76 = zext nneg i32 %56 to i64
  %77 = sub nsw i64 13, %70
  %78 = icmp ugt i32 %69, 13
  %79 = select i1 %78, i64 0, i64 %77
  %80 = icmp ne i64 %79, -1
  call void @llvm.assume(i1 %80)
  %81 = call ptr @__memcpy_chk(ptr noundef %71, ptr noundef %75, i64 noundef range(i64 -127, 256) %76, i64 noundef %79) #11, !alias.scope !23
  %82 = sub nsw i32 %69, %28
  br label %108

83:                                               ; preds = %55
  %84 = getelementptr [13 x i8], ptr %6, i64 0, i64 %59
  store i8 48, ptr %84, align 1
  %85 = add nuw nsw i32 %.072, 1
  %86 = zext nneg i32 %85 to i64
  %87 = getelementptr [13 x i8], ptr %6, i64 0, i64 %86
  store i8 46, ptr %87, align 1
  %88 = or disjoint i32 %.072, 2
  %89 = sub nsw i32 %56, %57
  %90 = icmp sgt i32 %89, 0
  br i1 %90, label %91, label %98

91:                                               ; preds = %83
  %92 = zext nneg i32 %88 to i64
  %93 = getelementptr i8, ptr %6, i64 %92
  %94 = zext nneg i32 %89 to i64
  %95 = sub nuw nsw i64 13, %92
  %96 = call ptr @__memset_chk(ptr noundef %93, i32 noundef 48, i64 noundef range(i64 -128, 129) %94, i64 noundef %95) #11
  %97 = add nuw nsw i32 %89, %88
  br label %98

98:                                               ; preds = %91, %83
  %.2 = phi i32 [ %97, %91 ], [ %88, %83 ]
  %99 = zext nneg i32 %.2 to i64
  %100 = getelementptr i8, ptr %6, i64 %99
  %101 = zext nneg i32 %57 to i64
  %102 = sub nsw i64 13, %99
  %103 = icmp samesign ugt i32 %.2, 13
  %104 = select i1 %103, i64 0, i64 %102
  %105 = icmp ne i64 %104, -1
  call void @llvm.assume(i1 %105)
  %106 = call ptr @__memcpy_chk(ptr noundef %100, ptr noundef nonnull %5, i64 noundef range(i64 -127, 256) %101, i64 noundef %104) #11, !alias.scope !27
  %107 = add nuw nsw i32 %.2, %57
  br label %108

108:                                              ; preds = %39, %98, %60, %30
  %.173 = phi i32 [ %36, %30 ], [ %54, %39 ], [ %82, %60 ], [ %107, %98 ]
  %109 = zext i32 %.173 to i64
  %110 = getelementptr [13 x i8], ptr %6, i64 0, i64 %109
  store i8 0, ptr %110, align 1
  %111 = call noalias ptr @wmem_strdup(ptr noundef %0, ptr noundef nonnull %6)
  br label %112

112:                                              ; preds = %108, %22
  %.1 = phi ptr [ %23, %22 ], [ %111, %108 ]
  call void @llvm.lifetime.end.p0(i64 13, ptr nonnull %6) #11
  br label %113

113:                                              ; preds = %112, %switch.lookup
  %.070 = phi ptr [ %11, %switch.lookup ], [ %.1, %112 ]
  call void @llvm.lifetime.end.p0(i64 5, ptr nonnull %5) #11
  ret ptr %.070
}